; Function Attrs: mustprogress uwtable
define internal noundef zeroext i1 @_ZN7rocksdb12_GLOBAL__N_112SimCacheImpl7ReleaseEPNS_5Cache6HandleEb(ptr noundef nonnull readonly align 8 captures(none) dereferenceable(216) %0, ptr noundef %1, i1 noundef zeroext %2) unnamed_addr #4 align 2 {
  %4 = getelementptr inbounds nuw i8, ptr %0, i64 80
  %5 = load ptr, ptr %4, align 8, !tbaa !45
  %6 = load ptr, ptr %5, align 8, !tbaa !32
  %7 = getelementptr inbounds nuw i8, ptr %6, i64 184
  %8 = load ptr, ptr %7, align 8
  %9 = tail call noundef zeroext i1 %8(ptr noundef nonnull align 8 dereferenceable(80) %5, ptr noundef %1, i1 noundef zeroext %2)
  ret i1 %9
}